target datalayout = "e-m:e-p270:32:32-p271:32:32-p272:64:64-i64:64-i128:128-f80:128-n8:16:32:64-S128"
target triple = "x86_64-unknown-linux-gnu"

%class.btGhostObject = type { %class.btCollisionObject.base, [4 x i8], %class.btAlignedObjectArray.0 }
%class.btCollisionObject.base = type <{ ptr, %class.btTransform, %class.btTransform, %class.btVector3, %class.btVector3, %class.btVector3, i32, float, ptr, ptr, ptr, ptr, i32, i32, i32, i32, i32, float, float, float, float, float, float, float, i32, [4 x i8], ptr, i32, i32, i32, float, float, float, i32, [4 x i8], %class.btAlignedObjectArray, i32, %class.btVector3 }>
%class.btTransform = type { %class.btMatrix3x3, %class.btVector3 }
%class.btMatrix3x3 = type { [3 x %class.btVector3] }
%class.btAlignedObjectArray = type <{ %class.btAlignedAllocator, [3 x i8], i32, i32, [4 x i8], ptr, i8, [7 x i8] }>
%class.btAlignedAllocator = type { i8 }
%class.btVector3 = type { [4 x float] }
%class.btAlignedObjectArray.0 = type <{ %class.btAlignedAllocator.1, [3 x i8], i32, i32, [4 x i8], ptr, i8, [7 x i8] }>
%class.btAlignedAllocator.1 = type { i8 }
%class.btCollisionObject = type <{ ptr, %class.btTransform, %class.btTransform, %class.btVector3, %class.btVector3, %class.btVector3, i32, float, ptr, ptr, ptr, ptr, i32, i32, i32, i32, i32, float, float, float, float, float, float, float, i32, [4 x i8], ptr, i32, i32, i32, float, float, float, i32, [4 x i8], %class.btAlignedObjectArray, i32, %class.btVector3, [4 x i8] }>

; Function Attrs: mustprogress uwtable
define linkonce_odr dso_local void @_ZN11btMatrix3x38setValueERKfS1_S1_S1_S1_S1_S1_S1_S1_(ptr noundef nonnull align 4 dereferenceable(48) %this, ptr noundef nonnull align 4 dereferenceable(4) %xx, ptr noundef nonnull align 4 dereferenceable(4) %xy, ptr noundef nonnull align 4 dereferenceable(4) %xz, ptr noundef nonnull align 4 dereferenceable(4) %yx, ptr noundef nonnull align 4 dereferenceable(4) %yy, ptr noundef nonnull align 4 dereferenceable(4) %yz, ptr noundef nonnull align 4 dereferenceable(4) %zx, ptr noundef nonnull align 4 dereferenceable(4) %zy, ptr noundef nonnull align 4 dereferenceable(4) %zz) #2 comdat align 2 {
entry:
  %this.addr = alloca ptr, align 8
  %xx.addr = alloca ptr, align 8
  %xy.addr = alloca ptr, align 8
  %xz.addr = alloca ptr, align 8
  %yx.addr = alloca ptr, align 8
  %yy.addr = alloca ptr, align 8
  %yz.addr = alloca ptr, align 8
  %zx.addr = alloca ptr, align 8
  %zy.addr = alloca ptr, align 8
  %zz.addr = alloca ptr, align 8
  store ptr %this, ptr %this.addr, align 8
  store ptr %xx, ptr %xx.addr, align 8
  store ptr %xy, ptr %xy.addr, align 8
  store ptr %xz, ptr %xz.addr, align 8
  store ptr %yx, ptr %yx.addr, align 8
  store ptr %yy, ptr %yy.addr, align 8
  store ptr %yz, ptr %yz.addr, align 8
  store ptr %zx, ptr %zx.addr, align 8
  store ptr %zy, ptr %zy.addr, align 8
  store ptr %zz, ptr %zz.addr, align 8
  %this1 = load ptr, ptr %this.addr, align 8
  %m_el = getelementptr inbounds %class.btMatrix3x3, ptr %this1, i32 0, i32 0
  %arrayidx = getelementptr inbounds [3 x %class.btVector3], ptr %m_el, i64 0, i64 0
  %0 = load ptr, ptr %xx.addr, align 8
  %1 = load ptr, ptr %xy.addr, align 8
  %2 = load ptr, ptr %xz.addr, align 8
  call void @_ZN9btVector38setValueERKfS1_S1_(ptr noundef nonnull align 4 dereferenceable(16) %arrayidx, ptr noundef nonnull align 4 dereferenceable(4) %0, ptr noundef nonnull align 4 dereferenceable(4) %1, ptr noundef nonnull align 4 dereferenceable(4) %2)
  %m_el2 = getelementptr inbounds %class.btMatrix3x3, ptr %this1, i32 0, i32 0
  %arrayidx3 = getelementptr inbounds [3 x %class.btVector3], ptr %m_el2, i64 0, i64 1
  %3 = load ptr, ptr %yx.addr, align 8
  %4 = load ptr, ptr %yy.addr, align 8
  %5 = load ptr, ptr %yz.addr, align 8
  call void @_ZN9btVector38setValueERKfS1_S1_(ptr noundef nonnull align 4 dereferenceable(16) %arrayidx3, ptr noundef nonnull align 4 dereferenceable(4) %3, ptr noundef nonnull align 4 dereferenceable(4) %4, ptr noundef nonnull align 4 dereferenceable(4) %5)
  %m_el4 = getelementptr inbounds %class.btMatrix3x3, ptr %this1, i32 0, i32 0
  %arrayidx5 = getelementptr inbounds [3 x %class.btVector3], ptr %m_el4, i64 0, i64 2
  %6 = load ptr, ptr %zx.addr, align 8
  %7 = load ptr, ptr %zy.addr, align 8
  %8 = load ptr, ptr %zz.addr, align 8
  call void @_ZN9btVector38setValueERKfS1_S1_(ptr noundef nonnull align 4 dereferenceable(16) %arrayidx5, ptr noundef nonnull align 4 dereferenceable(4) %6, ptr noundef nonnull align 4 dereferenceable(4) %7, ptr noundef nonnull align 4 dereferenceable(4) %8)
  ret void
}

; Function Attrs: mustprogress nounwind uwtable
define linkonce_odr dso_local void @_ZN9btVector38setValueERKfS1_S1_(ptr noundef nonnull align 4 dereferenceable(16) %this, ptr noundef nonnull align 4 dereferenceable(4) %_x, ptr noundef nonnull align 4 dereferenceable(4) %_y, ptr noundef nonnull align 4 dereferenceable(4) %_z) #1 comdat align 2 {
entry:
  %this.addr = alloca ptr, align 8
  %_x.addr = alloca ptr, align 8
  %_y.addr = alloca ptr, align 8
  %_z.addr = alloca ptr, align 8
  store ptr %this, ptr %this.addr, align 8
  store ptr %_x, ptr %_x.addr, align 8
  store ptr %_y, ptr %_y.addr, align 8
  store ptr %_z, ptr %_z.addr, align 8
  %this1 = load ptr, ptr %this.addr, align 8
  %0 = load ptr, ptr %_x.addr, align 8
  %1 = load float, ptr %0, align 4
  %m_floats = getelementptr inbounds %class.btVector3, ptr %this1, i32 0, i32 0
  %arrayidx = getelementptr inbounds [4 x float], ptr %m_floats, i64 0, i64 0
  store float %1, ptr %arrayidx, align 4
  %2 = load ptr, ptr %_y.addr, align 8
  %3 = load float, ptr %2, align 4
  %m_floats2 = getelementptr inbounds %class.btVector3, ptr %this1, i32 0, i32 0
  %arrayidx3 = getelementptr inbounds [4 x float], ptr %m_floats2, i64 0, i64 1
  store float %3, ptr %arrayidx3, align 4
  %4 = load ptr, ptr %_z.addr, align 8
  %5 = load float, ptr %4, align 4
  %m_floats4 = getelementptr inbounds %class.btVector3, ptr %this1, i32 0, i32 0
  %arrayidx5 = getelementptr inbounds [4 x float], ptr %m_floats4, i64 0, i64 2
  store float %5, ptr %arrayidx5, align 4
  %m_floats6 = getelementptr inbounds %class.btVector3, ptr %this1, i32 0, i32 0
  %arrayidx7 = getelementptr inbounds [4 x float], ptr %m_floats6, i64 0, i64 3
  store float 0.000000e+00, ptr %arrayidx7, align 4
  ret void
}

; Function Attrs: mustprogress uwtable
define linkonce_odr dso_local void @_ZN11btMatrix3x311setIdentityEv(ptr noundef nonnull align 4 dereferenceable(48) %this) #2 comdat align 2 {
entry:
  %this.addr = alloca ptr, align 8
  %ref.tmp = alloca float, align 4
  %ref.tmp2 = alloca float, align 4
  %ref.tmp3 = alloca float, align 4
  %ref.tmp4 = alloca float, align 4
  %ref.tmp5 = alloca float, align 4
  %ref.tmp6 = alloca float, align 4
  %ref.tmp7 = alloca float, align 4
  %ref.tmp8 = alloca float, align 4
  %ref.tmp9 = alloca float, align 4
  store ptr %this, ptr %this.addr, align 8
  %this1 = load ptr, ptr %this.addr, align 8
  store float 1.000000e+00, ptr %ref.tmp, align 4
  store float 0.000000e+00, ptr %ref.tmp2, align 4
  store float 0.000000e+00, ptr %ref.tmp3, align 4
  store float 0.000000e+00, ptr %ref.tmp4, align 4
  store float 1.000000e+00, ptr %ref.tmp5, align 4
  store float 0.000000e+00, ptr %ref.tmp6, align 4
  store float 0.000000e+00, ptr %ref.tmp7, align 4
  store float 0.000000e+00, ptr %ref.tmp8, align 4
  store float 1.000000e+00, ptr %ref.tmp9, align 4
  call void @_ZN11btMatrix3x38setValueERKfS1_S1_S1_S1_S1_S1_S1_S1_(ptr noundef nonnull align 4 dereferenceable(48) %this1, ptr noundef nonnull align 4 dereferenceable(4) %ref.tmp, ptr noundef nonnull align 4 dereferenceable(4) %ref.tmp2, ptr noundef nonnull align 4 dereferenceable(4) %ref.tmp3, ptr noundef nonnull align 4 dereferenceable(4) %ref.tmp4, ptr noundef nonnull align 4 dereferenceable(4) %ref.tmp5, ptr noundef nonnull align 4 dereferenceable(4) %ref.tmp6, ptr noundef nonnull align 4 dereferenceable(4) %ref.tmp7, ptr noundef nonnull align 4 dereferenceable(4) %ref.tmp8, ptr noundef nonnull align 4 dereferenceable(4) %ref.tmp9)
  ret void
}

; Function Attrs: mustprogress nounwind uwtable
define linkonce_odr dso_local void @_ZN9btVector3C2Ev(ptr noundef nonnull align 4 dereferenceable(16) %this) unnamed_addr #1 comdat align 2 {
entry:
  %this.addr = alloca ptr, align 8
  store ptr %this, ptr %this.addr, align 8
  ret void
}

; Function Attrs: mustprogress uwtable
define linkonce_odr dso_local void @_ZN11btMatrix3x3C2Ev(ptr noundef nonnull align 4 dereferenceable(48) %this) unnamed_addr #2 comdat align 2 {
entry:
  %this.addr = alloca ptr, align 8
  store ptr %this, ptr %this.addr, align 8
  %this1 = load ptr, ptr %this.addr, align 8
  %m_el = getelementptr inbounds %class.btMatrix3x3, ptr %this1, i32 0, i32 0
  %array.begin = getelementptr inbounds [3 x %class.btVector3], ptr %m_el, i32 0, i32 0
  %arrayctor.end = getelementptr inbounds %class.btVector3, ptr %array.begin, i64 3
  br label %arrayctor.loop

arrayctor.loop:                                   ; preds = %arrayctor.loop, %entry
  %arrayctor.cur = phi ptr [ %array.begin, %entry ], [ %arrayctor.next, %arrayctor.loop ]
  call void @_ZN9btVector3C2Ev(ptr noundef nonnull align 4 dereferenceable(16) %arrayctor.cur)
  %arrayctor.next = getelementptr inbounds %class.btVector3, ptr %arrayctor.cur, i64 1
  %arrayctor.done = icmp eq ptr %arrayctor.next, %arrayctor.end
  br i1 %arrayctor.done, label %arrayctor.cont, label %arrayctor.loop

arrayctor.cont:                                   ; preds = %arrayctor.loop
  ret void
}

; Function Attrs: mustprogress nounwind uwtable
define linkonce_odr dso_local noundef nonnull align 4 dereferenceable(64) ptr @_ZN17btCollisionObject17getWorldTransformEv(ptr noundef nonnull align 8 dereferenceable(372) %this) #1 comdat align 2 {
entry:
  %this.addr = alloca ptr, align 8
  store ptr %this, ptr %this.addr, align 8
  %this1 = load ptr, ptr %this.addr, align 8
  %m_worldTransform = getelementptr inbounds %class.btCollisionObject, ptr %this1, i32 0, i32 1
  ret ptr %m_worldTransform
}

; Function Attrs: mustprogress nounwind uwtable
define linkonce_odr dso_local noundef ptr @_ZN17btCollisionObject17getCollisionShapeEv(ptr noundef nonnull align 8 dereferenceable(372) %this) #1 comdat align 2 {
entry:
  %this.addr = alloca ptr, align 8
  store ptr %this, ptr %this.addr, align 8
  %this1 = load ptr, ptr %this.addr, align 8
  %m_collisionShape = getelementptr inbounds %class.btCollisionObject, ptr %this1, i32 0, i32 9
  %0 = load ptr, ptr %m_collisionShape, align 8
  ret ptr %0
}

; Function Attrs: mustprogress nounwind uwtable
define linkonce_odr dso_local noundef ptr @_ZN17btCollisionObject19getBroadphaseHandleEv(ptr noundef nonnull align 8 dereferenceable(372) %this) #1 comdat align 2 {
entry:
  %this.addr = alloca ptr, align 8
  store ptr %this, ptr %this.addr, align 8
  %this1 = load ptr, ptr %this.addr, align 8
  %m_broadphaseHandle = getelementptr inbounds %class.btCollisionObject, ptr %this1, i32 0, i32 8
  %0 = load ptr, ptr %m_broadphaseHandle, align 8
  ret ptr %0
}

; Function Attrs: mustprogress nounwind uwtable
define linkonce_odr dso_local noundef nonnull align 8 dereferenceable(8) ptr @_ZNK20btAlignedObjectArrayIP17btCollisionObjectEixEi(ptr noundef nonnull align 8 dereferenceable(25) %this, i32 noundef %n) #1 comdat align 2 {
entry:
  %this.addr = alloca ptr, align 8
  %n.addr = alloca i32, align 4
  store ptr %this, ptr %this.addr, align 8
  store i32 %n, ptr %n.addr, align 4
  %this1 = load ptr, ptr %this.addr, align 8
  %m_data = getelementptr inbounds %class.btAlignedObjectArray.0, ptr %this1, i32 0, i32 5
  %0 = load ptr, ptr %m_data, align 8
  %1 = load i32, ptr %n.addr, align 4
  %idxprom = sext i32 %1 to i64
  %arrayidx = getelementptr inbounds ptr, ptr %0, i64 %idxprom
  ret ptr %arrayidx
}

; Function Attrs: mustprogress nounwind uwtable
define linkonce_odr dso_local noundef i32 @_ZNK20btAlignedObjectArrayIP17btCollisionObjectE4sizeEv(ptr noundef nonnull align 8 dereferenceable(25) %this) #1 comdat align 2 {
entry:
  %this.addr = alloca ptr, align 8
  store ptr %this, ptr %this.addr, align 8
  %this1 = load ptr, ptr %this.addr, align 8
  %m_size = getelementptr inbounds %class.btAlignedObjectArray.0, ptr %this1, i32 0, i32 2
  %0 = load i32, ptr %m_size, align 4
  ret i32 %0
}

; Function Attrs: mustprogress nounwind uwtable
define linkonce_odr dso_local void @_ZN11btTransform9setOriginERK9btVector3(ptr noundef nonnull align 4 dereferenceable(64) %this, ptr noundef nonnull align 4 dereferenceable(16) %origin) #1 comdat align 2 {
entry:
  %this.addr = alloca ptr, align 8
  %origin.addr = alloca ptr, align 8
  store ptr %this, ptr %this.addr, align 8
  store ptr %origin, ptr %origin.addr, align 8
  %this1 = load ptr, ptr %this.addr, align 8
  %0 = load ptr, ptr %origin.addr, align 8
  %m_origin = getelementptr inbounds %class.btTransform, ptr %this1, i32 0, i32 1
  call void @llvm.memcpy.p0.p0.i64(ptr align 4 %m_origin, ptr align 4 %0, i64 16, i1 false)
  ret void
}

; Function Attrs: mustprogress uwtable
define linkonce_odr dso_local void @_ZN11btTransform11setIdentityEv(ptr noundef nonnull align 4 dereferenceable(64) %this) #2 comdat align 2 {
entry:
  %this.addr = alloca ptr, align 8
  %ref.tmp = alloca float, align 4
  %ref.tmp2 = alloca float, align 4
  %ref.tmp3 = alloca float, align 4
  store ptr %this, ptr %this.addr, align 8
  %this1 = load ptr, ptr %this.addr, align 8
  %m_basis = getelementptr inbounds %class.btTransform, ptr %this1, i32 0, i32 0
  call void @_ZN11btMatrix3x311setIdentityEv(ptr noundef nonnull align 4 dereferenceable(48) %m_basis)
  %m_origin = getelementptr inbounds %class.btTransform, ptr %this1, i32 0, i32 1
  store float 0.000000e+00, ptr %ref.tmp, align 4
  store float 0.000000e+00, ptr %ref.tmp2, align 4
  store float 0.000000e+00, ptr %ref.tmp3, align 4
  call void @_ZN9btVector38setValueERKfS1_S1_(ptr noundef nonnull align 4 dereferenceable(16) %m_origin, ptr noundef nonnull align 4 dereferenceable(4) %ref.tmp, ptr noundef nonnull align 4 dereferenceable(4) %ref.tmp2, ptr noundef nonnull align 4 dereferenceable(4) %ref.tmp3)
  ret void
}

; Function Attrs: mustprogress uwtable
define linkonce_odr dso_local void @_ZN11btTransformC2Ev(ptr noundef nonnull align 4 dereferenceable(64) %this) unnamed_addr #2 comdat align 2 {
entry:
  %this.addr = alloca ptr, align 8
  store ptr %this, ptr %this.addr, align 8
  %this1 = load ptr, ptr %this.addr, align 8
  %m_basis = getelementptr inbounds %class.btTransform, ptr %this1, i32 0, i32 0
  call void @_ZN11btMatrix3x3C2Ev(ptr noundef nonnull align 4 dereferenceable(48) %m_basis)
  %m_origin = getelementptr inbounds %class.btTransform, ptr %this1, i32 0, i32 1
  call void @_ZN9btVector3C2Ev(ptr noundef nonnull align 4 dereferenceable(16) %m_origin)
  ret void
}

; Function Attrs: mustprogress uwtable
define dso_local void @_ZNK13btGhostObject7rayTestERK9btVector3S2_RN16btCollisionWorld17RayResultCallbackE(ptr noundef nonnull align 8 dereferenceable(408) %this, ptr noundef nonnull align 4 dereferenceable(16) %rayFromWorld, ptr noundef nonnull align 4 dereferenceable(16) %rayToWorld, ptr noundef nonnull align 8 dereferenceable(36) %resultCallback) #2 align 2 {
entry:
  %this.addr = alloca ptr, align 8
  %rayFromWorld.addr = alloca ptr, align 8
  %rayToWorld.addr = alloca ptr, align 8
  %resultCallback.addr = alloca ptr, align 8
  %rayFromTrans = alloca %class.btTransform, align 4
  %rayToTrans = alloca %class.btTransform, align 4
  %i = alloca i32, align 4
  %collisionObject = alloca ptr, align 8
  store ptr %this, ptr %this.addr, align 8
  store ptr %rayFromWorld, ptr %rayFromWorld.addr, align 8
  store ptr %rayToWorld, ptr %rayToWorld.addr, align 8
  store ptr %resultCallback, ptr %resultCallback.addr, align 8
  %this1 = load ptr, ptr %this.addr, align 8
  call void @_ZN11btTransformC2Ev(ptr noundef nonnull align 4 dereferenceable(64) %rayFromTrans)
  call void @_ZN11btTransform11setIdentityEv(ptr noundef nonnull align 4 dereferenceable(64) %rayFromTrans)
  %0 = load ptr, ptr %rayFromWorld.addr, align 8
  call void @_ZN11btTransform9setOriginERK9btVector3(ptr noundef nonnull align 4 dereferenceable(64) %rayFromTrans, ptr noundef nonnull align 4 dereferenceable(16) %0)
  call void @_ZN11btTransformC2Ev(ptr noundef nonnull align 4 dereferenceable(64) %rayToTrans)
  call void @_ZN11btTransform11setIdentityEv(ptr noundef nonnull align 4 dereferenceable(64) %rayToTrans)
  %1 = load ptr, ptr %rayToWorld.addr, align 8
  call void @_ZN11btTransform9setOriginERK9btVector3(ptr noundef nonnull align 4 dereferenceable(64) %rayToTrans, ptr noundef nonnull align 4 dereferenceable(16) %1)
  store i32 0, ptr %i, align 4
  br label %for.cond

for.cond:                                         ; preds = %for.inc, %entry
  %2 = load i32, ptr %i, align 4
  %m_overlappingObjects = getelementptr inbounds %class.btGhostObject, ptr %this1, i32 0, i32 2
  %call = call noundef i32 @_ZNK20btAlignedObjectArrayIP17btCollisionObjectE4sizeEv(ptr noundef nonnull align 8 dereferenceable(25) %m_overlappingObjects)
  %cmp = icmp slt i32 %2, %call
  br i1 %cmp, label %for.body, label %for.end

for.body:                                         ; preds = %for.cond
  %m_overlappingObjects2 = getelementptr inbounds %class.btGhostObject, ptr %this1, i32 0, i32 2
  %3 = load i32, ptr %i, align 4
  %call3 = call noundef nonnull align 8 dereferenceable(8) ptr @_ZNK20btAlignedObjectArrayIP17btCollisionObjectEixEi(ptr noundef nonnull align 8 dereferenceable(25) %m_overlappingObjects2, i32 noundef %3)
  %4 = load ptr, ptr %call3, align 8
  store ptr %4, ptr %collisionObject, align 8
  %5 = load ptr, ptr %resultCallback.addr, align 8
  %6 = load ptr, ptr %collisionObject, align 8
  %call4 = call noundef ptr @_ZN17btCollisionObject19getBroadphaseHandleEv(ptr noundef nonnull align 8 dereferenceable(372) %6)
  %vtable = load ptr, ptr %5, align 8
  %vfn = getelementptr inbounds ptr, ptr %vtable, i64 2
  %7 = load ptr, ptr %vfn, align 8
  %call5 = call noundef zeroext i1 %7(ptr noundef nonnull align 8 dereferenceable(36) %5, ptr noundef %call4)
  br i1 %call5, label %if.then, label %if.end

if.then:                                          ; preds = %for.body
  %8 = load ptr, ptr %collisionObject, align 8
  %9 = load ptr, ptr %collisionObject, align 8
  %call6 = call noundef ptr @_ZN17btCollisionObject17getCollisionShapeEv(ptr noundef nonnull align 8 dereferenceable(372) %9)
  %10 = load ptr, ptr %collisionObject, align 8
  %call7 = call noundef nonnull align 4 dereferenceable(64) ptr @_ZN17btCollisionObject17getWorldTransformEv(ptr noundef nonnull align 8 dereferenceable(372) %10)
  %11 = load ptr, ptr %resultCallback.addr, align 8
  call void @_ZN16btCollisionWorld13rayTestSingleERK11btTransformS2_P17btCollisionObjectPK16btCollisionShapeS2_RNS_17RayResultCallbackE(ptr noundef nonnull align 4 dereferenceable(64) %rayFromTrans, ptr noundef nonnull align 4 dereferenceable(64) %rayToTrans, ptr noundef %8, ptr noundef %call6, ptr noundef nonnull align 4 dereferenceable(64) %call7, ptr noundef nonnull align 8 dereferenceable(36) %11)
  br label %if.end

if.end:                                           ; preds = %if.then, %for.body
  br label %for.inc

for.inc:                                          ; preds = %if.end
  %12 = load i32, ptr %i, align 4
  %inc = add nsw i32 %12, 1
  store i32 %inc, ptr %i, align 4
  br label %for.cond, !llvm.loop !10

for.end:                                          ; preds = %for.cond
  ret void
}