; Function Attrs: mustprogress uwtable
define dso_local void @_ZNK13btGhostObject7rayTestERK9btVector3S2_RN16btCollisionWorld17RayResultCallbackE(ptr nocapture noundef nonnull readonly align 8 dereferenceable(408) %this, ptr nocapture noundef nonnull readonly align 4 dereferenceable(16) %rayFromWorld, ptr nocapture noundef nonnull readonly align 4 dereferenceable(16) %rayToWorld, ptr noundef nonnull align 8 dereferenceable(36) %resultCallback) local_unnamed_addr #0 align 2 {
entry:
  %rayFromTrans = alloca %class.btTransform, align 4
  %rayToTrans = alloca %class.btTransform, align 4
  store float 1.000000e+00, ptr %rayFromTrans, align 4
  %arrayidx3.i.i.i.i = getelementptr inbounds i8, ptr %rayFromTrans, i64 4
  %arrayidx3.i1.i.i.i = getelementptr inbounds i8, ptr %rayFromTrans, i64 20
  call void @llvm.memset.p0.i64(ptr noundef nonnull align 4 dereferenceable(16) %arrayidx3.i.i.i.i, i8 0, i64 16, i1 false)
  store float 1.000000e+00, ptr %arrayidx3.i1.i.i.i, align 4
  %arrayidx5.i2.i.i.i = getelementptr inbounds i8, ptr %rayFromTrans, i64 24
  %arrayidx5.i5.i.i.i = getelementptr inbounds i8, ptr %rayFromTrans, i64 40
  call void @llvm.memset.p0.i64(ptr noundef nonnull align 4 dereferenceable(16) %arrayidx5.i2.i.i.i, i8 0, i64 16, i1 false)
  store float 1.000000e+00, ptr %arrayidx5.i5.i.i.i, align 4
  %arrayidx7.i6.i.i.i = getelementptr inbounds i8, ptr %rayFromTrans, i64 44
  store i32 0, ptr %arrayidx7.i6.i.i.i, align 4
  %m_origin.i = getelementptr inbounds i8, ptr %rayFromTrans, i64 48
  call void @llvm.memcpy.p0.p0.i64(ptr noundef nonnull align 4 dereferenceable(16) %m_origin.i, ptr noundef nonnull align 4 dereferenceable(16) %rayFromWorld, i64 16, i1 false)
  store float 1.000000e+00, ptr %rayToTrans, align 4
  %arrayidx3.i.i.i.i7 = getelementptr inbounds i8, ptr %rayToTrans, i64 4
  %arrayidx3.i1.i.i.i8 = getelementptr inbounds i8, ptr %rayToTrans, i64 20
  call void @llvm.memset.p0.i64(ptr noundef nonnull align 4 dereferenceable(16) %arrayidx3.i.i.i.i7, i8 0, i64 16, i1 false)
  store float 1.000000e+00, ptr %arrayidx3.i1.i.i.i8, align 4
  %arrayidx5.i2.i.i.i9 = getelementptr inbounds i8, ptr %rayToTrans, i64 24
  %arrayidx5.i5.i.i.i10 = getelementptr inbounds i8, ptr %rayToTrans, i64 40
  call void @llvm.memset.p0.i64(ptr noundef nonnull align 4 dereferenceable(16) %arrayidx5.i2.i.i.i9, i8 0, i64 16, i1 false)
  store float 1.000000e+00, ptr %arrayidx5.i5.i.i.i10, align 4
  %arrayidx7.i6.i.i.i11 = getelementptr inbounds i8, ptr %rayToTrans, i64 44
  store i32 0, ptr %arrayidx7.i6.i.i.i11, align 4
  %m_origin.i12 = getelementptr inbounds i8, ptr %rayToTrans, i64 48
  call void @llvm.memcpy.p0.p0.i64(ptr noundef nonnull align 4 dereferenceable(16) %m_origin.i12, ptr noundef nonnull align 4 dereferenceable(16) %rayToWorld, i64 16, i1 false)
  %m_size.i = getelementptr inbounds i8, ptr %this, i64 380
  %0 = load i32, ptr %m_size.i, align 4
  %cmp13 = icmp sgt i32 %0, 0
  br i1 %cmp13, label %for.body.lr.ph, label %for.end

for.body.lr.ph:                                   ; preds = %entry
  %m_data.i = getelementptr inbounds i8, ptr %this, i64 392
  br label %for.body

for.body:                                         ; preds = %for.body.lr.ph, %for.inc
  %indvars.iv = phi i64 [ 0, %for.body.lr.ph ], [ %indvars.iv.next, %for.inc ]
  %1 = load ptr, ptr %m_data.i, align 8
  %arrayidx.i = getelementptr inbounds ptr, ptr %1, i64 %indvars.iv
  %2 = load ptr, ptr %arrayidx.i, align 8
  %m_broadphaseHandle.i = getelementptr inbounds i8, ptr %2, i64 192
  %3 = load ptr, ptr %m_broadphaseHandle.i, align 8
  %vtable = load ptr, ptr %resultCallback, align 8
  %vfn = getelementptr inbounds i8, ptr %vtable, i64 16
  %4 = load ptr, ptr %vfn, align 8
  %call5 = call noundef zeroext i1 %4(ptr noundef nonnull align 8 dereferenceable(36) %resultCallback, ptr noundef %3)
  br i1 %call5, label %if.then, label %for.inc

if.then:                                          ; preds = %for.body
  %m_collisionShape.i = getelementptr inbounds i8, ptr %2, i64 200
  %5 = load ptr, ptr %m_collisionShape.i, align 8
  %m_worldTransform.i = getelementptr inbounds i8, ptr %2, i64 8
  call void @_ZN16btCollisionWorld13rayTestSingleERK11btTransformS2_P17btCollisionObjectPK16btCollisionShapeS2_RNS_17RayResultCallbackE(ptr noundef nonnull align 4 dereferenceable(64) %rayFromTrans, ptr noundef nonnull align 4 dereferenceable(64) %rayToTrans, ptr noundef nonnull %2, ptr noundef %5, ptr noundef nonnull align 4 dereferenceable(64) %m_worldTransform.i, ptr noundef nonnull align 8 dereferenceable(36) %resultCallback)
  br label %for.inc

for.inc:                                          ; preds = %for.body, %if.then
  %indvars.iv.next = add nuw nsw i64 %indvars.iv, 1
  %6 = load i32, ptr %m_size.i, align 4
  %7 = sext i32 %6 to i64
  %cmp = icmp slt i64 %indvars.iv.next, %7
  br i1 %cmp, label %for.body, label %for.end, !llvm.loop !11

for.end:                                          ; preds = %for.inc, %entry
  ret void
}